; Function Attrs: mustprogress nounwind uwtable
define dso_local noundef i64 @_ZN4node6crypto7NodeBIO4CtrlEP6bio_stilPv(ptr noundef %bio, i32 noundef %cmd, i64 noundef %num, ptr noundef writeonly %ptr) #3 align 2 {
entry:
  %call.i = tail call ptr @BIO_get_data(ptr noundef %bio) #16
  %cmp.not.i = icmp eq ptr %call.i, null
  br i1 %cmp.not.i, label %do.body3.i, label %_ZN4node6crypto7NodeBIO7FromBIOEP6bio_st.exit

do.body3.i:                                       ; preds = %entry
  tail call void @_ZN4node6AssertERKNS_13AssertionInfoE(ptr noundef nonnull align 8 dereferenceable(24) @_ZZN4node6crypto7NodeBIO7FromBIOEP6bio_stE4args) #16
  tail call void @abort() #17
  unreachable

_ZN4node6crypto7NodeBIO7FromBIOEP6bio_st.exit:    ; preds = %entry
  %call5.i = tail call noundef ptr @BIO_get_data(ptr noundef %bio) #16
  switch i32 %cmd, label %sw.epilog [
    i32 1, label %sw.bb
    i32 2, label %sw.bb1
    i32 130, label %sw.bb3
    i32 3, label %sw.bb5
    i32 114, label %do.body
    i32 115, label %do.body10
    i32 8, label %sw.bb12
    i32 9, label %sw.bb15
    i32 11, label %sw.bb20
    i32 10, label %sw.bb18
    i32 12, label %sw.bb20
  ]

sw.bb:                                            ; preds = %_ZN4node6crypto7NodeBIO7FromBIOEP6bio_st.exit
  %read_head_.i = getelementptr inbounds i8, ptr %call5.i, i64 48
  %0 = load ptr, ptr %read_head_.i, align 8
  %cmp.i = icmp eq ptr %0, null
  br i1 %cmp.i, label %sw.epilog, label %while.cond.preheader.i

while.cond.preheader.i:                           ; preds = %sw.bb
  %read_pos_3.i = getelementptr inbounds i8, ptr %0, i64 8
  %1 = load i64, ptr %read_pos_3.i, align 8
  %write_pos_4.i = getelementptr inbounds i8, ptr %0, i64 16
  %2 = load i64, ptr %write_pos_4.i, align 8
  %cmp4.not5.i = icmp eq i64 %1, %2
  br i1 %cmp4.not5.i, label %while.end.i, label %do.body.lr.ph.i

do.body.lr.ph.i:                                  ; preds = %while.cond.preheader.i
  %length_.i = getelementptr inbounds i8, ptr %call5.i, i64 24
  br label %do.body.i

do.body.i:                                        ; preds = %do.end15.i, %do.body.lr.ph.i
  %3 = phi i64 [ %2, %do.body.lr.ph.i ], [ %10, %do.end15.i ]
  %write_pos_6.i = phi ptr [ %write_pos_4.i, %do.body.lr.ph.i ], [ %write_pos_.i, %do.end15.i ]
  %4 = phi i64 [ %1, %do.body.lr.ph.i ], [ %9, %do.end15.i ]
  %cmp9.not.i = icmp ugt i64 %3, %4
  br i1 %cmp9.not.i, label %do.end15.i, label %do.body13.i

do.body13.i:                                      ; preds = %do.body.i
  tail call void @_ZN4node6AssertERKNS_13AssertionInfoE(ptr noundef nonnull align 8 dereferenceable(24) @_ZZN4node6crypto7NodeBIO5ResetEvE4args) #16
  tail call void @abort() #17
  unreachable

do.end15.i:                                       ; preds = %do.body.i
  %sub.neg.i = sub i64 %4, %3
  %5 = load i64, ptr %length_.i, align 8
  %sub20.i = add i64 %sub.neg.i, %5
  store i64 %sub20.i, ptr %length_.i, align 8
  store i64 0, ptr %write_pos_6.i, align 8
  %6 = load ptr, ptr %read_head_.i, align 8
  %read_pos_24.i = getelementptr inbounds i8, ptr %6, i64 8
  store i64 0, ptr %read_pos_24.i, align 8
  %7 = load ptr, ptr %read_head_.i, align 8
  %next_.i = getelementptr inbounds i8, ptr %7, i64 32
  %8 = load ptr, ptr %next_.i, align 8
  store ptr %8, ptr %read_head_.i, align 8
  %read_pos_.i = getelementptr inbounds i8, ptr %8, i64 8
  %9 = load i64, ptr %read_pos_.i, align 8
  %write_pos_.i = getelementptr inbounds i8, ptr %8, i64 16
  %10 = load i64, ptr %write_pos_.i, align 8
  %cmp4.not.i = icmp eq i64 %9, %10
  br i1 %cmp4.not.i, label %while.end.i, label %do.body.i, !llvm.loop !12

while.end.i:                                      ; preds = %do.end15.i, %while.cond.preheader.i
  %.lcssa.i = phi ptr [ %0, %while.cond.preheader.i ], [ %8, %do.end15.i ]
  %write_head_.i = getelementptr inbounds i8, ptr %call5.i, i64 56
  store ptr %.lcssa.i, ptr %write_head_.i, align 8
  %length_29.i = getelementptr inbounds i8, ptr %call5.i, i64 24
  %11 = load i64, ptr %length_29.i, align 8
  %cmp30.not.i = icmp eq i64 %11, 0
  br i1 %cmp30.not.i, label %sw.epilog, label %do.body35.i

do.body35.i:                                      ; preds = %while.end.i
  tail call void @_ZN4node6AssertERKNS_13AssertionInfoE(ptr noundef nonnull align 8 dereferenceable(24) @_ZZN4node6crypto7NodeBIO5ResetEvE4args_0) #16
  tail call void @abort() #17
  unreachable

sw.bb1:                                           ; preds = %_ZN4node6crypto7NodeBIO7FromBIOEP6bio_st.exit
  %length_.i9 = getelementptr inbounds i8, ptr %call5.i, i64 24
  %12 = load i64, ptr %length_.i9, align 8
  %cmp = icmp eq i64 %12, 0
  %conv = zext i1 %cmp to i64
  br label %sw.epilog

sw.bb3:                                           ; preds = %_ZN4node6crypto7NodeBIO7FromBIOEP6bio_st.exit
  %conv4 = trunc i64 %num to i32
  %eof_return_.i = getelementptr inbounds i8, ptr %call5.i, i64 40
  store i32 %conv4, ptr %eof_return_.i, align 8
  br label %sw.epilog

sw.bb5:                                           ; preds = %_ZN4node6crypto7NodeBIO7FromBIOEP6bio_st.exit
  %length_.i10 = getelementptr inbounds i8, ptr %call5.i, i64 24
  %13 = load i64, ptr %length_.i10, align 8
  %cmp7.not = icmp eq ptr %ptr, null
  br i1 %cmp7.not, label %sw.epilog, label %if.then

if.then:                                          ; preds = %sw.bb5
  store ptr null, ptr %ptr, align 8
  br label %sw.epilog

do.body:                                          ; preds = %_ZN4node6crypto7NodeBIO7FromBIOEP6bio_st.exit
  tail call void @_ZN4node6AssertERKNS_13AssertionInfoE(ptr noundef nonnull align 8 dereferenceable(24) @_ZZN4node6crypto7NodeBIO4CtrlEP6bio_stilPvE4args) #16
  tail call void @abort() #17
  unreachable

do.body10:                                        ; preds = %_ZN4node6crypto7NodeBIO7FromBIOEP6bio_st.exit
  tail call void @_ZN4node6AssertERKNS_13AssertionInfoE(ptr noundef nonnull align 8 dereferenceable(24) @_ZZN4node6crypto7NodeBIO4CtrlEP6bio_stilPvE4args_0) #16
  tail call void @abort() #17
  unreachable

sw.bb12:                                          ; preds = %_ZN4node6crypto7NodeBIO7FromBIOEP6bio_st.exit
  %call13 = tail call i32 @BIO_get_shutdown(ptr noundef %bio) #16
  %conv14 = sext i32 %call13 to i64
  br label %sw.epilog

sw.bb15:                                          ; preds = %_ZN4node6crypto7NodeBIO7FromBIOEP6bio_st.exit
  %conv16 = trunc i64 %num to i32
  tail call void @BIO_set_shutdown(ptr noundef %bio, i32 noundef %conv16) #16
  br label %sw.epilog

sw.bb18:                                          ; preds = %_ZN4node6crypto7NodeBIO7FromBIOEP6bio_st.exit
  %length_.i11 = getelementptr inbounds i8, ptr %call5.i, i64 24
  %14 = load i64, ptr %length_.i11, align 8
  br label %sw.epilog

sw.bb20:                                          ; preds = %_ZN4node6crypto7NodeBIO7FromBIOEP6bio_st.exit, %_ZN4node6crypto7NodeBIO7FromBIOEP6bio_st.exit
  br label %sw.epilog

sw.epilog:                                        ; preds = %while.end.i, %sw.bb, %_ZN4node6crypto7NodeBIO7FromBIOEP6bio_st.exit, %sw.bb5, %if.then, %sw.bb20, %sw.bb18, %sw.bb15, %sw.bb12, %sw.bb3, %sw.bb1
  %ret.0 = phi i64 [ 1, %sw.bb20 ], [ %14, %sw.bb18 ], [ 1, %sw.bb15 ], [ %conv14, %sw.bb12 ], [ %13, %if.then ], [ %13, %sw.bb5 ], [ 1, %sw.bb3 ], [ %conv, %sw.bb1 ], [ 0, %_ZN4node6crypto7NodeBIO7FromBIOEP6bio_st.exit ], [ 1, %sw.bb ], [ 1, %while.end.i ]
  ret i64 %ret.0
}